; Function Attrs: mustprogress uwtable
define hidden noundef ptr @_Z13pyopencv_fromIN2cv7Point3_IiEEEP7_objectRKT_(ptr nocapture noundef nonnull readonly align 4 dereferenceable(12) %0) local_unnamed_addr #3 {
  %2 = load i32, ptr %0, align 4
  %3 = getelementptr inbounds i8, ptr %0, i64 4
  %4 = load i32, ptr %3, align 4
  %5 = getelementptr inbounds i8, ptr %0, i64 8
  %6 = load i32, ptr %5, align 4
  %7 = tail call ptr (ptr, ...) @Py_BuildValue(ptr noundef nonnull @.str.40, i32 noundef %2, i32 noundef %4, i32 noundef %6)
  ret ptr %7
}